ARM GAS  C:\Users\ADMINI~1\AppData\Local\Temp\ccU6Amol.s 			page 1


   1              		.cpu cortex-m3
   2              		.eabi_attribute 20, 1
   3              		.eabi_attribute 21, 1
   4              		.eabi_attribute 23, 3
   5              		.eabi_attribute 24, 1
   6              		.eabi_attribute 25, 1
   7              		.eabi_attribute 26, 1
   8              		.eabi_attribute 30, 6
   9              		.eabi_attribute 34, 1
  10              		.eabi_attribute 18, 4
  11              		.file	"software_timer.c"
  12              		.text
  13              	.Ltext0:
  14              		.cfi_sections	.debug_frame
  15              		.global	timer1_flag
  16              		.section	.bss.timer1_flag,"aw",%nobits
  17              		.align	2
  20              	timer1_flag:
  21 0000 00000000 		.space	4
  22              		.global	timer1_counter
  23              		.section	.bss.timer1_counter,"aw",%nobits
  24              		.align	2
  27              	timer1_counter:
  28 0000 00000000 		.space	4
  29              		.global	timer2_flag
  30              		.section	.bss.timer2_flag,"aw",%nobits
  31              		.align	2
  34              	timer2_flag:
  35 0000 00000000 		.space	4
  36              		.global	timer2_counter
  37              		.section	.bss.timer2_counter,"aw",%nobits
  38              		.align	2
  41              	timer2_counter:
  42 0000 00000000 		.space	4
  43              		.section	.text.setTimer1,"ax",%progbits
  44              		.align	1
  45              		.global	setTimer1
  46              		.arch armv7-m
  47              		.syntax unified
  48              		.thumb
  49              		.thumb_func
  50              		.fpu softvfp
  52              	setTimer1:
  53              	.LFB0:
  54              		.file 1 "./Core/Src/software_timer.c"
   1:./Core/Src/software_timer.c **** /*
   2:./Core/Src/software_timer.c ****  * software_timer.c
   3:./Core/Src/software_timer.c ****  *
   4:./Core/Src/software_timer.c ****  *  Created on: 13 thg 12, 2022
   5:./Core/Src/software_timer.c ****  *      Author: Administrator
   6:./Core/Src/software_timer.c ****  */
   7:./Core/Src/software_timer.c **** 
   8:./Core/Src/software_timer.c **** 
   9:./Core/Src/software_timer.c **** #include "software_timer.h"
  10:./Core/Src/software_timer.c **** 
  11:./Core/Src/software_timer.c **** int timer1_flag=0;
  12:./Core/Src/software_timer.c **** int timer1_counter=0;
ARM GAS  C:\Users\ADMINI~1\AppData\Local\Temp\ccU6Amol.s 			page 2


  13:./Core/Src/software_timer.c **** 
  14:./Core/Src/software_timer.c **** int timer2_flag=0;
  15:./Core/Src/software_timer.c **** int timer2_counter=0;
  16:./Core/Src/software_timer.c **** 
  17:./Core/Src/software_timer.c **** void setTimer1( int duration){
  55              		.loc 1 17 30
  56              		.cfi_startproc
  57              		@ args = 0, pretend = 0, frame = 8
  58              		@ frame_needed = 1, uses_anonymous_args = 0
  59              		@ link register save eliminated.
  60 0000 80B4     		push	{r7}
  61              		.cfi_def_cfa_offset 4
  62              		.cfi_offset 7, -4
  63 0002 83B0     		sub	sp, sp, #12
  64              		.cfi_def_cfa_offset 16
  65 0004 00AF     		add	r7, sp, #0
  66              		.cfi_def_cfa_register 7
  67 0006 7860     		str	r0, [r7, #4]
  18:./Core/Src/software_timer.c **** 	timer1_counter=duration/TICK;
  68              		.loc 1 18 25
  69 0008 7B68     		ldr	r3, [r7, #4]
  70 000a 084A     		ldr	r2, .L2
  71 000c 82FB0312 		smull	r1, r2, r2, r3
  72 0010 9210     		asrs	r2, r2, #2
  73 0012 DB17     		asrs	r3, r3, #31
  74 0014 D31A     		subs	r3, r2, r3
  75              		.loc 1 18 16
  76 0016 064A     		ldr	r2, .L2+4
  77 0018 1360     		str	r3, [r2]
  19:./Core/Src/software_timer.c **** 	timer1_flag=0;
  78              		.loc 1 19 13
  79 001a 064B     		ldr	r3, .L2+8
  80 001c 0022     		movs	r2, #0
  81 001e 1A60     		str	r2, [r3]
  20:./Core/Src/software_timer.c **** }
  82              		.loc 1 20 1
  83 0020 00BF     		nop
  84 0022 0C37     		adds	r7, r7, #12
  85              		.cfi_def_cfa_offset 4
  86 0024 BD46     		mov	sp, r7
  87              		.cfi_def_cfa_register 13
  88              		@ sp needed
  89 0026 80BC     		pop	{r7}
  90              		.cfi_restore 7
  91              		.cfi_def_cfa_offset 0
  92 0028 7047     		bx	lr
  93              	.L3:
  94 002a 00BF     		.align	2
  95              	.L2:
  96 002c 67666666 		.word	1717986919
  97 0030 00000000 		.word	timer1_counter
  98 0034 00000000 		.word	timer1_flag
  99              		.cfi_endproc
 100              	.LFE0:
 102              		.section	.text.timer1_run,"ax",%progbits
 103              		.align	1
 104              		.global	timer1_run
ARM GAS  C:\Users\ADMINI~1\AppData\Local\Temp\ccU6Amol.s 			page 3


 105              		.syntax unified
 106              		.thumb
 107              		.thumb_func
 108              		.fpu softvfp
 110              	timer1_run:
 111              	.LFB1:
  21:./Core/Src/software_timer.c **** 
  22:./Core/Src/software_timer.c **** void timer1_run(int index){
 112              		.loc 1 22 27
 113              		.cfi_startproc
 114              		@ args = 0, pretend = 0, frame = 8
 115              		@ frame_needed = 1, uses_anonymous_args = 0
 116              		@ link register save eliminated.
 117 0000 80B4     		push	{r7}
 118              		.cfi_def_cfa_offset 4
 119              		.cfi_offset 7, -4
 120 0002 83B0     		sub	sp, sp, #12
 121              		.cfi_def_cfa_offset 16
 122 0004 00AF     		add	r7, sp, #0
 123              		.cfi_def_cfa_register 7
 124 0006 7860     		str	r0, [r7, #4]
  23:./Core/Src/software_timer.c **** 	if(timer1_counter>0){
 125              		.loc 1 23 19
 126 0008 0A4B     		ldr	r3, .L7
 127 000a 1B68     		ldr	r3, [r3]
 128              		.loc 1 23 4
 129 000c 002B     		cmp	r3, #0
 130 000e 0BDD     		ble	.L6
  24:./Core/Src/software_timer.c **** 		timer1_counter--;
 131              		.loc 1 24 17
 132 0010 084B     		ldr	r3, .L7
 133 0012 1B68     		ldr	r3, [r3]
 134 0014 013B     		subs	r3, r3, #1
 135 0016 074A     		ldr	r2, .L7
 136 0018 1360     		str	r3, [r2]
  25:./Core/Src/software_timer.c **** 		if(timer1_counter<=0) timer1_flag=1;
 137              		.loc 1 25 20
 138 001a 064B     		ldr	r3, .L7
 139 001c 1B68     		ldr	r3, [r3]
 140              		.loc 1 25 5
 141 001e 002B     		cmp	r3, #0
 142 0020 02DC     		bgt	.L6
 143              		.loc 1 25 36 discriminator 1
 144 0022 054B     		ldr	r3, .L7+4
 145 0024 0122     		movs	r2, #1
 146 0026 1A60     		str	r2, [r3]
 147              	.L6:
  26:./Core/Src/software_timer.c **** 	}
  27:./Core/Src/software_timer.c **** }
 148              		.loc 1 27 1
 149 0028 00BF     		nop
 150 002a 0C37     		adds	r7, r7, #12
 151              		.cfi_def_cfa_offset 4
 152 002c BD46     		mov	sp, r7
 153              		.cfi_def_cfa_register 13
 154              		@ sp needed
 155 002e 80BC     		pop	{r7}
ARM GAS  C:\Users\ADMINI~1\AppData\Local\Temp\ccU6Amol.s 			page 4


 156              		.cfi_restore 7
 157              		.cfi_def_cfa_offset 0
 158 0030 7047     		bx	lr
 159              	.L8:
 160 0032 00BF     		.align	2
 161              	.L7:
 162 0034 00000000 		.word	timer1_counter
 163 0038 00000000 		.word	timer1_flag
 164              		.cfi_endproc
 165              	.LFE1:
 167              		.section	.text.setTimer2,"ax",%progbits
 168              		.align	1
 169              		.global	setTimer2
 170              		.syntax unified
 171              		.thumb
 172              		.thumb_func
 173              		.fpu softvfp
 175              	setTimer2:
 176              	.LFB2:
  28:./Core/Src/software_timer.c **** 
  29:./Core/Src/software_timer.c **** void setTimer2( int duration){
 177              		.loc 1 29 30
 178              		.cfi_startproc
 179              		@ args = 0, pretend = 0, frame = 8
 180              		@ frame_needed = 1, uses_anonymous_args = 0
 181              		@ link register save eliminated.
 182 0000 80B4     		push	{r7}
 183              		.cfi_def_cfa_offset 4
 184              		.cfi_offset 7, -4
 185 0002 83B0     		sub	sp, sp, #12
 186              		.cfi_def_cfa_offset 16
 187 0004 00AF     		add	r7, sp, #0
 188              		.cfi_def_cfa_register 7
 189 0006 7860     		str	r0, [r7, #4]
  30:./Core/Src/software_timer.c **** 	timer2_counter=duration/TICK;
 190              		.loc 1 30 25
 191 0008 7B68     		ldr	r3, [r7, #4]
 192 000a 084A     		ldr	r2, .L10
 193 000c 82FB0312 		smull	r1, r2, r2, r3
 194 0010 9210     		asrs	r2, r2, #2
 195 0012 DB17     		asrs	r3, r3, #31
 196 0014 D31A     		subs	r3, r2, r3
 197              		.loc 1 30 16
 198 0016 064A     		ldr	r2, .L10+4
 199 0018 1360     		str	r3, [r2]
  31:./Core/Src/software_timer.c **** 	timer2_flag=0;
 200              		.loc 1 31 13
 201 001a 064B     		ldr	r3, .L10+8
 202 001c 0022     		movs	r2, #0
 203 001e 1A60     		str	r2, [r3]
  32:./Core/Src/software_timer.c **** }
 204              		.loc 1 32 1
 205 0020 00BF     		nop
 206 0022 0C37     		adds	r7, r7, #12
 207              		.cfi_def_cfa_offset 4
 208 0024 BD46     		mov	sp, r7
 209              		.cfi_def_cfa_register 13
ARM GAS  C:\Users\ADMINI~1\AppData\Local\Temp\ccU6Amol.s 			page 5


 210              		@ sp needed
 211 0026 80BC     		pop	{r7}
 212              		.cfi_restore 7
 213              		.cfi_def_cfa_offset 0
 214 0028 7047     		bx	lr
 215              	.L11:
 216 002a 00BF     		.align	2
 217              	.L10:
 218 002c 67666666 		.word	1717986919
 219 0030 00000000 		.word	timer2_counter
 220 0034 00000000 		.word	timer2_flag
 221              		.cfi_endproc
 222              	.LFE2:
 224              		.section	.text.timer2_run,"ax",%progbits
 225              		.align	1
 226              		.global	timer2_run
 227              		.syntax unified
 228              		.thumb
 229              		.thumb_func
 230              		.fpu softvfp
 232              	timer2_run:
 233              	.LFB3:
  33:./Core/Src/software_timer.c **** 
  34:./Core/Src/software_timer.c **** void timer2_run(int index){
 234              		.loc 1 34 27
 235              		.cfi_startproc
 236              		@ args = 0, pretend = 0, frame = 8
 237              		@ frame_needed = 1, uses_anonymous_args = 0
 238              		@ link register save eliminated.
 239 0000 80B4     		push	{r7}
 240              		.cfi_def_cfa_offset 4
 241              		.cfi_offset 7, -4
 242 0002 83B0     		sub	sp, sp, #12
 243              		.cfi_def_cfa_offset 16
 244 0004 00AF     		add	r7, sp, #0
 245              		.cfi_def_cfa_register 7
 246 0006 7860     		str	r0, [r7, #4]
  35:./Core/Src/software_timer.c **** 	if(timer2_counter>0){
 247              		.loc 1 35 19
 248 0008 0A4B     		ldr	r3, .L15
 249 000a 1B68     		ldr	r3, [r3]
 250              		.loc 1 35 4
 251 000c 002B     		cmp	r3, #0
 252 000e 0BDD     		ble	.L14
  36:./Core/Src/software_timer.c **** 		timer2_counter--;
 253              		.loc 1 36 17
 254 0010 084B     		ldr	r3, .L15
 255 0012 1B68     		ldr	r3, [r3]
 256 0014 013B     		subs	r3, r3, #1
 257 0016 074A     		ldr	r2, .L15
 258 0018 1360     		str	r3, [r2]
  37:./Core/Src/software_timer.c **** 		if(timer2_counter<=0) timer2_flag=1;
 259              		.loc 1 37 20
 260 001a 064B     		ldr	r3, .L15
 261 001c 1B68     		ldr	r3, [r3]
 262              		.loc 1 37 5
 263 001e 002B     		cmp	r3, #0
ARM GAS  C:\Users\ADMINI~1\AppData\Local\Temp\ccU6Amol.s 			page 6


 264 0020 02DC     		bgt	.L14
 265              		.loc 1 37 36 discriminator 1
 266 0022 054B     		ldr	r3, .L15+4
 267 0024 0122     		movs	r2, #1
 268 0026 1A60     		str	r2, [r3]
 269              	.L14:
  38:./Core/Src/software_timer.c **** 	}
  39:./Core/Src/software_timer.c **** }
 270              		.loc 1 39 1
 271 0028 00BF     		nop
 272 002a 0C37     		adds	r7, r7, #12
 273              		.cfi_def_cfa_offset 4
 274 002c BD46     		mov	sp, r7
 275              		.cfi_def_cfa_register 13
 276              		@ sp needed
 277 002e 80BC     		pop	{r7}
 278              		.cfi_restore 7
 279              		.cfi_def_cfa_offset 0
 280 0030 7047     		bx	lr
 281              	.L16:
 282 0032 00BF     		.align	2
 283              	.L15:
 284 0034 00000000 		.word	timer2_counter
 285 0038 00000000 		.word	timer2_flag
 286              		.cfi_endproc
 287              	.LFE3:
 289              		.text
 290              	.Letext0:
 291              		.file 2 "Core/Inc/software_timer.h"
ARM GAS  C:\Users\ADMINI~1\AppData\Local\Temp\ccU6Amol.s 			page 7

